target datalayout = "e-m:e-p270:32:32-p271:32:32-p272:64:64-i64:64-i128:128-f80:128-n8:16:32:64-S128"
target triple = "x86_64-pc-linux-gnu"

%struct.b2Vec2 = type { float, float }
%struct.b2BodyState = type { %struct.b2Vec2, float, i32, %struct.b2Vec2, %struct.b2Rot }
%struct.b2Rot = type { float, float }
%struct.b2JointSim = type { i32, i32, i32, i32, %struct.b2Vec2, %struct.b2Vec2, float, float, float, float, %union.anon }
%union.anon = type { %struct.b2PrismaticJoint }
%struct.b2PrismaticJoint = type { %struct.b2Vec2, %struct.b2Vec2, float, float, float, float, float, float, float, float, float, float, float, i32, i32, %struct.b2Vec2, %struct.b2Vec2, %struct.b2Vec2, %struct.b2Vec2, float, float, %struct.b2Softness, i8, i8, i8 }
%struct.b2Softness = type { float, float, float }
%struct.b2RevoluteJoint = type { %struct.b2Vec2, float, float, float, float, float, float, float, float, float, float, float, i32, i32, %struct.b2Vec2, %struct.b2Vec2, %struct.b2Vec2, float, float, %struct.b2Softness, i8, i8, i8 }
%struct.b2AtomicInt = type { i32 }
%struct.b2StepContext = type { float, float, float, float, i32, %struct.b2Softness, %struct.b2Softness, %struct.b2Softness, float, float, ptr, ptr, ptr, ptr, ptr, i32, ptr, %struct.b2AtomicInt, ptr, ptr, ptr, i32, i32, ptr, i32, i8, [64 x i8], %struct.b2AtomicU32, [64 x i8] }
%struct.b2AtomicU32 = type { i32 }

@__const.b2WarmStartRevoluteJoint.dummyState = private unnamed_addr constant %struct.b2BodyState { %struct.b2Vec2 zeroinitializer, float 0.000000e+00, i32 0, %struct.b2Vec2 zeroinitializer, %struct.b2Rot { float 1.000000e+00, float 0.000000e+00 } }, align 4

; Function Attrs: inlinehint nounwind uwtable
define internal <2 x float> @b2MulAdd(<2 x float> %0, float noundef %1, <2 x float> %2) #4 {
  %4 = alloca %struct.b2Vec2, align 4
  %5 = alloca %struct.b2Vec2, align 4
  %6 = alloca %struct.b2Vec2, align 4
  %7 = alloca float, align 4
  store <2 x float> %0, ptr %5, align 4
  store <2 x float> %2, ptr %6, align 4
  store float %1, ptr %7, align 4, !tbaa !13
  %8 = getelementptr inbounds nuw %struct.b2Vec2, ptr %4, i32 0, i32 0
  %9 = getelementptr inbounds nuw %struct.b2Vec2, ptr %5, i32 0, i32 0
  %10 = load float, ptr %9, align 4, !tbaa !76
  %11 = load float, ptr %7, align 4, !tbaa !13
  %12 = getelementptr inbounds nuw %struct.b2Vec2, ptr %6, i32 0, i32 0
  %13 = load float, ptr %12, align 4, !tbaa !76
  %14 = fmul float %11, %13
  %15 = fadd float %10, %14
  store float %15, ptr %8, align 4, !tbaa !76
  %16 = getelementptr inbounds nuw %struct.b2Vec2, ptr %4, i32 0, i32 1
  %17 = getelementptr inbounds nuw %struct.b2Vec2, ptr %5, i32 0, i32 1
  %18 = load float, ptr %17, align 4, !tbaa !77
  %19 = load float, ptr %7, align 4, !tbaa !13
  %20 = getelementptr inbounds nuw %struct.b2Vec2, ptr %6, i32 0, i32 1
  %21 = load float, ptr %20, align 4, !tbaa !77
  %22 = fmul float %19, %21
  %23 = fadd float %18, %22
  store float %23, ptr %16, align 4, !tbaa !77
  %24 = load <2 x float>, ptr %4, align 4
  ret <2 x float> %24
}

; Function Attrs: inlinehint nounwind uwtable
define internal float @b2Cross(<2 x float> %0, <2 x float> %1) #4 {
  %3 = alloca %struct.b2Vec2, align 4
  %4 = alloca %struct.b2Vec2, align 4
  store <2 x float> %0, ptr %3, align 4
  store <2 x float> %1, ptr %4, align 4
  %5 = getelementptr inbounds nuw %struct.b2Vec2, ptr %3, i32 0, i32 0
  %6 = load float, ptr %5, align 4, !tbaa !76
  %7 = getelementptr inbounds nuw %struct.b2Vec2, ptr %4, i32 0, i32 1
  %8 = load float, ptr %7, align 4, !tbaa !77
  %9 = fmul float %6, %8
  %10 = getelementptr inbounds nuw %struct.b2Vec2, ptr %3, i32 0, i32 1
  %11 = load float, ptr %10, align 4, !tbaa !77
  %12 = getelementptr inbounds nuw %struct.b2Vec2, ptr %4, i32 0, i32 0
  %13 = load float, ptr %12, align 4, !tbaa !76
  %14 = fmul float %11, %13
  %15 = fsub float %9, %14
  ret float %15
}

; Function Attrs: inlinehint nounwind uwtable
define internal <2 x float> @b2MulSub(<2 x float> %0, float noundef %1, <2 x float> %2) #4 {
  %4 = alloca %struct.b2Vec2, align 4
  %5 = alloca %struct.b2Vec2, align 4
  %6 = alloca %struct.b2Vec2, align 4
  %7 = alloca float, align 4
  store <2 x float> %0, ptr %5, align 4
  store <2 x float> %2, ptr %6, align 4
  store float %1, ptr %7, align 4, !tbaa !13
  %8 = getelementptr inbounds nuw %struct.b2Vec2, ptr %4, i32 0, i32 0
  %9 = getelementptr inbounds nuw %struct.b2Vec2, ptr %5, i32 0, i32 0
  %10 = load float, ptr %9, align 4, !tbaa !76
  %11 = load float, ptr %7, align 4, !tbaa !13
  %12 = getelementptr inbounds nuw %struct.b2Vec2, ptr %6, i32 0, i32 0
  %13 = load float, ptr %12, align 4, !tbaa !76
  %14 = fmul float %11, %13
  %15 = fsub float %10, %14
  store float %15, ptr %8, align 4, !tbaa !76
  %16 = getelementptr inbounds nuw %struct.b2Vec2, ptr %4, i32 0, i32 1
  %17 = getelementptr inbounds nuw %struct.b2Vec2, ptr %5, i32 0, i32 1
  %18 = load float, ptr %17, align 4, !tbaa !77
  %19 = load float, ptr %7, align 4, !tbaa !13
  %20 = getelementptr inbounds nuw %struct.b2Vec2, ptr %6, i32 0, i32 1
  %21 = load float, ptr %20, align 4, !tbaa !77
  %22 = fmul float %19, %21
  %23 = fsub float %18, %22
  store float %23, ptr %16, align 4, !tbaa !77
  %24 = load <2 x float>, ptr %4, align 4
  ret <2 x float> %24
}

; Function Attrs: inlinehint nounwind uwtable
define internal <2 x float> @b2RotateVector(<2 x float> %0, <2 x float> %1) #4 {
  %3 = alloca %struct.b2Vec2, align 4
  %4 = alloca %struct.b2Rot, align 4
  %5 = alloca %struct.b2Vec2, align 4
  store <2 x float> %0, ptr %4, align 4
  store <2 x float> %1, ptr %5, align 4
  %6 = getelementptr inbounds nuw %struct.b2Vec2, ptr %3, i32 0, i32 0
  %7 = getelementptr inbounds nuw %struct.b2Rot, ptr %4, i32 0, i32 0
  %8 = load float, ptr %7, align 4, !tbaa !27
  %9 = getelementptr inbounds nuw %struct.b2Vec2, ptr %5, i32 0, i32 0
  %10 = load float, ptr %9, align 4, !tbaa !76
  %11 = fmul float %8, %10
  %12 = getelementptr inbounds nuw %struct.b2Rot, ptr %4, i32 0, i32 1
  %13 = load float, ptr %12, align 4, !tbaa !25
  %14 = getelementptr inbounds nuw %struct.b2Vec2, ptr %5, i32 0, i32 1
  %15 = load float, ptr %14, align 4, !tbaa !77
  %16 = fmul float %13, %15
  %17 = fsub float %11, %16
  store float %17, ptr %6, align 4, !tbaa !76
  %18 = getelementptr inbounds nuw %struct.b2Vec2, ptr %3, i32 0, i32 1
  %19 = getelementptr inbounds nuw %struct.b2Rot, ptr %4, i32 0, i32 1
  %20 = load float, ptr %19, align 4, !tbaa !25
  %21 = getelementptr inbounds nuw %struct.b2Vec2, ptr %5, i32 0, i32 0
  %22 = load float, ptr %21, align 4, !tbaa !76
  %23 = fmul float %20, %22
  %24 = getelementptr inbounds nuw %struct.b2Rot, ptr %4, i32 0, i32 0
  %25 = load float, ptr %24, align 4, !tbaa !27
  %26 = getelementptr inbounds nuw %struct.b2Vec2, ptr %5, i32 0, i32 1
  %27 = load float, ptr %26, align 4, !tbaa !77
  %28 = fmul float %25, %27
  %29 = fadd float %23, %28
  store float %29, ptr %18, align 4, !tbaa !77
  %30 = load <2 x float>, ptr %3, align 4
  ret <2 x float> %30
}

; Function Attrs: nounwind uwtable
define hidden void @b2WarmStartRevoluteJoint(ptr noundef %0, ptr noundef %1) #3 {
  %3 = alloca ptr, align 8
  %4 = alloca ptr, align 8
  %5 = alloca float, align 4
  %6 = alloca float, align 4
  %7 = alloca float, align 4
  %8 = alloca float, align 4
  %9 = alloca %struct.b2BodyState, align 4
  %10 = alloca ptr, align 8
  %11 = alloca ptr, align 8
  %12 = alloca ptr, align 8
  %13 = alloca %struct.b2Vec2, align 4
  %14 = alloca %struct.b2Vec2, align 4
  %15 = alloca float, align 4
  %16 = alloca %struct.b2Vec2, align 4
  %17 = alloca %struct.b2Vec2, align 4
  store ptr %0, ptr %3, align 8, !tbaa !7
  store ptr %1, ptr %4, align 8, !tbaa !85
  call void @llvm.lifetime.start.p0(i64 4, ptr %5) #9
  %18 = load ptr, ptr %3, align 8, !tbaa !7
  %19 = getelementptr inbounds nuw %struct.b2JointSim, ptr %18, i32 0, i32 6
  %20 = load float, ptr %19, align 4, !tbaa !108
  store float %20, ptr %5, align 4, !tbaa !13
  call void @llvm.lifetime.start.p0(i64 4, ptr %6) #9
  %21 = load ptr, ptr %3, align 8, !tbaa !7
  %22 = getelementptr inbounds nuw %struct.b2JointSim, ptr %21, i32 0, i32 7
  %23 = load float, ptr %22, align 4, !tbaa !109
  store float %23, ptr %6, align 4, !tbaa !13
  call void @llvm.lifetime.start.p0(i64 4, ptr %7) #9
  %24 = load ptr, ptr %3, align 8, !tbaa !7
  %25 = getelementptr inbounds nuw %struct.b2JointSim, ptr %24, i32 0, i32 8
  %26 = load float, ptr %25, align 4, !tbaa !110
  store float %26, ptr %7, align 4, !tbaa !13
  call void @llvm.lifetime.start.p0(i64 4, ptr %8) #9
  %27 = load ptr, ptr %3, align 8, !tbaa !7
  %28 = getelementptr inbounds nuw %struct.b2JointSim, ptr %27, i32 0, i32 9
  %29 = load float, ptr %28, align 4, !tbaa !111
  store float %29, ptr %8, align 4, !tbaa !13
  call void @llvm.lifetime.start.p0(i64 32, ptr %9) #9
  call void @llvm.memcpy.p0.p0.i64(ptr align 4 %9, ptr align 4 @__const.b2WarmStartRevoluteJoint.dummyState, i64 32, i1 false)
  call void @llvm.lifetime.start.p0(i64 8, ptr %10) #9
  %30 = load ptr, ptr %3, align 8, !tbaa !7
  %31 = getelementptr inbounds nuw %struct.b2JointSim, ptr %30, i32 0, i32 10
  store ptr %31, ptr %10, align 8, !tbaa !78
  call void @llvm.lifetime.start.p0(i64 8, ptr %11) #9
  %32 = load ptr, ptr %10, align 8, !tbaa !78
  %33 = getelementptr inbounds nuw %struct.b2RevoluteJoint, ptr %32, i32 0, i32 12
  %34 = load i32, ptr %33, align 4, !tbaa !112
  %35 = icmp eq i32 %34, -1
  br i1 %35, label %36, label %37

36:                                               ; preds = %2
  br label %46

37:                                               ; preds = %2
  %38 = load ptr, ptr %4, align 8, !tbaa !85
  %39 = getelementptr inbounds nuw %struct.b2StepContext, ptr %38, i32 0, i32 12
  %40 = load ptr, ptr %39, align 8, !tbaa !132
  %41 = load ptr, ptr %10, align 8, !tbaa !78
  %42 = getelementptr inbounds nuw %struct.b2RevoluteJoint, ptr %41, i32 0, i32 12
  %43 = load i32, ptr %42, align 4, !tbaa !112
  %44 = sext i32 %43 to i64
  %45 = getelementptr inbounds %struct.b2BodyState, ptr %40, i64 %44
  br label %46

46:                                               ; preds = %37, %36
  %47 = phi ptr [ %9, %36 ], [ %45, %37 ]
  store ptr %47, ptr %11, align 8, !tbaa !133
  call void @llvm.lifetime.start.p0(i64 8, ptr %12) #9
  %48 = load ptr, ptr %10, align 8, !tbaa !78
  %49 = getelementptr inbounds nuw %struct.b2RevoluteJoint, ptr %48, i32 0, i32 13
  %50 = load i32, ptr %49, align 4, !tbaa !113
  %51 = icmp eq i32 %50, -1
  br i1 %51, label %52, label %53

52:                                               ; preds = %46
  br label %62

53:                                               ; preds = %46
  %54 = load ptr, ptr %4, align 8, !tbaa !85
  %55 = getelementptr inbounds nuw %struct.b2StepContext, ptr %54, i32 0, i32 12
  %56 = load ptr, ptr %55, align 8, !tbaa !132
  %57 = load ptr, ptr %10, align 8, !tbaa !78
  %58 = getelementptr inbounds nuw %struct.b2RevoluteJoint, ptr %57, i32 0, i32 13
  %59 = load i32, ptr %58, align 4, !tbaa !113
  %60 = sext i32 %59 to i64
  %61 = getelementptr inbounds %struct.b2BodyState, ptr %56, i64 %60
  br label %62

62:                                               ; preds = %53, %52
  %63 = phi ptr [ %9, %52 ], [ %61, %53 ]
  store ptr %63, ptr %12, align 8, !tbaa !133
  call void @llvm.lifetime.start.p0(i64 8, ptr %13) #9
  %64 = load ptr, ptr %11, align 8, !tbaa !133
  %65 = getelementptr inbounds nuw %struct.b2BodyState, ptr %64, i32 0, i32 4
  %66 = load ptr, ptr %10, align 8, !tbaa !78
  %67 = getelementptr inbounds nuw %struct.b2RevoluteJoint, ptr %66, i32 0, i32 14
  %68 = load <2 x float>, ptr %65, align 4
  %69 = load <2 x float>, ptr %67, align 4
  %70 = call <2 x float> @b2RotateVector(<2 x float> %68, <2 x float> %69)
  store <2 x float> %70, ptr %13, align 4
  call void @llvm.lifetime.start.p0(i64 8, ptr %14) #9
  %71 = load ptr, ptr %12, align 8, !tbaa !133
  %72 = getelementptr inbounds nuw %struct.b2BodyState, ptr %71, i32 0, i32 4
  %73 = load ptr, ptr %10, align 8, !tbaa !78
  %74 = getelementptr inbounds nuw %struct.b2RevoluteJoint, ptr %73, i32 0, i32 15
  %75 = load <2 x float>, ptr %72, align 4
  %76 = load <2 x float>, ptr %74, align 4
  %77 = call <2 x float> @b2RotateVector(<2 x float> %75, <2 x float> %76)
  store <2 x float> %77, ptr %14, align 4
  call void @llvm.lifetime.start.p0(i64 4, ptr %15) #9
  %78 = load ptr, ptr %10, align 8, !tbaa !78
  %79 = getelementptr inbounds nuw %struct.b2RevoluteJoint, ptr %78, i32 0, i32 1
  %80 = load float, ptr %79, align 4, !tbaa !123
  %81 = load ptr, ptr %10, align 8, !tbaa !78
  %82 = getelementptr inbounds nuw %struct.b2RevoluteJoint, ptr %81, i32 0, i32 2
  %83 = load float, ptr %82, align 4, !tbaa !80
  %84 = fadd float %80, %83
  %85 = load ptr, ptr %10, align 8, !tbaa !78
  %86 = getelementptr inbounds nuw %struct.b2RevoluteJoint, ptr %85, i32 0, i32 3
  %87 = load float, ptr %86, align 4, !tbaa !83
  %88 = fadd float %84, %87
  %89 = load ptr, ptr %10, align 8, !tbaa !78
  %90 = getelementptr inbounds nuw %struct.b2RevoluteJoint, ptr %89, i32 0, i32 4
  %91 = load float, ptr %90, align 4, !tbaa !84
  %92 = fsub float %88, %91
  store float %92, ptr %15, align 4, !tbaa !13
  %93 = load ptr, ptr %11, align 8, !tbaa !133
  %94 = getelementptr inbounds nuw %struct.b2BodyState, ptr %93, i32 0, i32 0
  call void @llvm.lifetime.start.p0(i64 8, ptr %16) #9
  %95 = load ptr, ptr %11, align 8, !tbaa !133
  %96 = getelementptr inbounds nuw %struct.b2BodyState, ptr %95, i32 0, i32 0
  %97 = load float, ptr %5, align 4, !tbaa !13
  %98 = load ptr, ptr %10, align 8, !tbaa !78
  %99 = getelementptr inbounds nuw %struct.b2RevoluteJoint, ptr %98, i32 0, i32 0
  %100 = load <2 x float>, ptr %96, align 4
  %101 = load <2 x float>, ptr %99, align 4
  %102 = call <2 x float> @b2MulSub(<2 x float> %100, float noundef %97, <2 x float> %101)
  store <2 x float> %102, ptr %16, align 4
  call void @llvm.memcpy.p0.p0.i64(ptr align 4 %94, ptr align 4 %16, i64 8, i1 false), !tbaa.struct !114
  call void @llvm.lifetime.end.p0(i64 8, ptr %16) #9
  %103 = load float, ptr %7, align 4, !tbaa !13
  %104 = load ptr, ptr %10, align 8, !tbaa !78
  %105 = getelementptr inbounds nuw %struct.b2RevoluteJoint, ptr %104, i32 0, i32 0
  %106 = load <2 x float>, ptr %13, align 4
  %107 = load <2 x float>, ptr %105, align 4
  %108 = call float @b2Cross(<2 x float> %106, <2 x float> %107)
  %109 = load float, ptr %15, align 4, !tbaa !13
  %110 = fadd float %108, %109
  %111 = fmul float %103, %110
  %112 = load ptr, ptr %11, align 8, !tbaa !133
  %113 = getelementptr inbounds nuw %struct.b2BodyState, ptr %112, i32 0, i32 1
  %114 = load float, ptr %113, align 4, !tbaa !134
  %115 = fsub float %114, %111
  store float %115, ptr %113, align 4, !tbaa !134
  %116 = load ptr, ptr %12, align 8, !tbaa !133
  %117 = getelementptr inbounds nuw %struct.b2BodyState, ptr %116, i32 0, i32 0
  call void @llvm.lifetime.start.p0(i64 8, ptr %17) #9
  %118 = load ptr, ptr %12, align 8, !tbaa !133
  %119 = getelementptr inbounds nuw %struct.b2BodyState, ptr %118, i32 0, i32 0
  %120 = load float, ptr %6, align 4, !tbaa !13
  %121 = load ptr, ptr %10, align 8, !tbaa !78
  %122 = getelementptr inbounds nuw %struct.b2RevoluteJoint, ptr %121, i32 0, i32 0
  %123 = load <2 x float>, ptr %119, align 4
  %124 = load <2 x float>, ptr %122, align 4
  %125 = call <2 x float> @b2MulAdd(<2 x float> %123, float noundef %120, <2 x float> %124)
  store <2 x float> %125, ptr %17, align 4
  call void @llvm.memcpy.p0.p0.i64(ptr align 4 %117, ptr align 4 %17, i64 8, i1 false), !tbaa.struct !114
  call void @llvm.lifetime.end.p0(i64 8, ptr %17) #9
  %126 = load float, ptr %8, align 4, !tbaa !13
  %127 = load ptr, ptr %10, align 8, !tbaa !78
  %128 = getelementptr inbounds nuw %struct.b2RevoluteJoint, ptr %127, i32 0, i32 0
  %129 = load <2 x float>, ptr %14, align 4
  %130 = load <2 x float>, ptr %128, align 4
  %131 = call float @b2Cross(<2 x float> %129, <2 x float> %130)
  %132 = load float, ptr %15, align 4, !tbaa !13
  %133 = fadd float %131, %132
  %134 = fmul float %126, %133
  %135 = load ptr, ptr %12, align 8, !tbaa !133
  %136 = getelementptr inbounds nuw %struct.b2BodyState, ptr %135, i32 0, i32 1
  %137 = load float, ptr %136, align 4, !tbaa !134
  %138 = fadd float %137, %134
  store float %138, ptr %136, align 4, !tbaa !134
  call void @llvm.lifetime.end.p0(i64 4, ptr %15) #9
  call void @llvm.lifetime.end.p0(i64 8, ptr %14) #9
  call void @llvm.lifetime.end.p0(i64 8, ptr %13) #9
  call void @llvm.lifetime.end.p0(i64 8, ptr %12) #9
  call void @llvm.lifetime.end.p0(i64 8, ptr %11) #9
  call void @llvm.lifetime.end.p0(i64 8, ptr %10) #9
  call void @llvm.lifetime.end.p0(i64 32, ptr %9) #9
  call void @llvm.lifetime.end.p0(i64 4, ptr %8) #9
  call void @llvm.lifetime.end.p0(i64 4, ptr %7) #9
  call void @llvm.lifetime.end.p0(i64 4, ptr %6) #9
  call void @llvm.lifetime.end.p0(i64 4, ptr %5) #9
  ret void
}