; Function Attrs: mustprogress nofree norecurse nosync nounwind willreturn memory(readwrite, inaccessiblemem: none) uwtable
define hidden void @b2WarmStartRevoluteJoint(ptr noundef readonly captures(none) %0, ptr noundef readonly captures(none) %1) local_unnamed_addr #7 {
  %3 = alloca %struct.b2BodyState, align 4
  %4 = getelementptr inbounds nuw i8, ptr %0, i64 32
  %5 = load float, ptr %4, align 4, !tbaa !93
  %6 = getelementptr inbounds nuw i8, ptr %0, i64 36
  %7 = load float, ptr %6, align 4, !tbaa !94
  %8 = getelementptr inbounds nuw i8, ptr %0, i64 40
  %9 = load float, ptr %8, align 4, !tbaa !95
  %10 = getelementptr inbounds nuw i8, ptr %0, i64 44
  %11 = load float, ptr %10, align 4, !tbaa !96
  call void @llvm.lifetime.start.p0(i64 32, ptr nonnull %3) #10
  call void @llvm.memcpy.p0.p0.i64(ptr noundef nonnull align 4 dereferenceable(32) %3, ptr noundef nonnull align 4 dereferenceable(32) @__const.b2SolveRevoluteJoint.dummyState, i64 32, i1 false)
  %12 = getelementptr inbounds nuw i8, ptr %0, i64 100
  %13 = load i32, ptr %12, align 4, !tbaa !97
  %14 = icmp eq i32 %13, -1
  br i1 %14, label %20, label %15

15:                                               ; preds = %2
  %16 = getelementptr inbounds nuw i8, ptr %1, i64 80
  %17 = load ptr, ptr %16, align 8, !tbaa !107
  %18 = sext i32 %13 to i64
  %19 = getelementptr inbounds %struct.b2BodyState, ptr %17, i64 %18
  br label %20

20:                                               ; preds = %2, %15
  %21 = phi ptr [ %19, %15 ], [ %3, %2 ]
  %22 = getelementptr inbounds nuw i8, ptr %0, i64 104
  %23 = load i32, ptr %22, align 4, !tbaa !98
  %24 = icmp eq i32 %23, -1
  br i1 %24, label %30, label %25

25:                                               ; preds = %20
  %26 = getelementptr inbounds nuw i8, ptr %1, i64 80
  %27 = load ptr, ptr %26, align 8, !tbaa !107
  %28 = sext i32 %23 to i64
  %29 = getelementptr inbounds %struct.b2BodyState, ptr %27, i64 %28
  br label %30

30:                                               ; preds = %20, %25
  %31 = phi ptr [ %29, %25 ], [ %3, %20 ]
  %32 = getelementptr inbounds nuw i8, ptr %0, i64 48
  %33 = getelementptr inbounds nuw i8, ptr %21, i64 24
  %34 = getelementptr inbounds nuw i8, ptr %0, i64 108
  %35 = load <2 x float>, ptr %33, align 4
  %36 = load <2 x float>, ptr %34, align 4
  %.sroa.05.0.vec.extract.i = extractelement <2 x float> %35, i64 0
  %.sroa.0.0.vec.extract.i = extractelement <2 x float> %36, i64 0
  %37 = fmul <2 x float> %35, %36
  %38 = extractelement <2 x float> %37, i64 0
  %.sroa.05.4.vec.extract.i = extractelement <2 x float> %35, i64 1
  %.sroa.0.4.vec.extract.i = extractelement <2 x float> %36, i64 1
  %39 = fmul float %.sroa.05.4.vec.extract.i, %.sroa.0.4.vec.extract.i
  %40 = fsub float %38, %39
  %41 = fmul float %.sroa.05.4.vec.extract.i, %.sroa.0.0.vec.extract.i
  %42 = fmul float %.sroa.05.0.vec.extract.i, %.sroa.0.4.vec.extract.i
  %43 = fadd float %41, %42
  %44 = getelementptr inbounds nuw i8, ptr %31, i64 24
  %45 = getelementptr inbounds nuw i8, ptr %0, i64 116
  %46 = load <2 x float>, ptr %44, align 4
  %47 = load <2 x float>, ptr %45, align 4
  %.sroa.05.0.vec.extract.i39 = extractelement <2 x float> %46, i64 0
  %.sroa.0.0.vec.extract.i40 = extractelement <2 x float> %47, i64 0
  %48 = fmul <2 x float> %46, %47
  %49 = extractelement <2 x float> %48, i64 0
  %.sroa.05.4.vec.extract.i41 = extractelement <2 x float> %46, i64 1
  %.sroa.0.4.vec.extract.i42 = extractelement <2 x float> %47, i64 1
  %50 = fmul float %.sroa.05.4.vec.extract.i41, %.sroa.0.4.vec.extract.i42
  %51 = fsub float %49, %50
  %52 = fmul float %.sroa.05.4.vec.extract.i41, %.sroa.0.0.vec.extract.i40
  %53 = fmul float %.sroa.05.0.vec.extract.i39, %.sroa.0.4.vec.extract.i42
  %54 = fadd float %52, %53
  %55 = getelementptr inbounds nuw i8, ptr %0, i64 56
  %56 = load float, ptr %55, align 4, !tbaa !108
  %57 = getelementptr inbounds nuw i8, ptr %0, i64 60
  %58 = load float, ptr %57, align 4, !tbaa !65
  %59 = fadd float %56, %58
  %60 = getelementptr inbounds nuw i8, ptr %0, i64 64
  %61 = load float, ptr %60, align 4, !tbaa !68
  %62 = fadd float %59, %61
  %63 = getelementptr inbounds nuw i8, ptr %0, i64 68
  %64 = load float, ptr %63, align 4, !tbaa !69
  %65 = fsub float %62, %64
  %66 = load <2 x float>, ptr %21, align 4
  %67 = load <2 x float>, ptr %32, align 4
  %.sroa.02.0.vec.extract.i = extractelement <2 x float> %66, i64 0
  %.sroa.0.0.vec.extract.i45 = extractelement <2 x float> %67, i64 0
  %68 = fmul float %5, %.sroa.0.0.vec.extract.i45
  %69 = fsub float %.sroa.02.0.vec.extract.i, %68
  %.sroa.03.0.vec.insert.i = insertelement <2 x float> poison, float %69, i64 0
  %.sroa.02.4.vec.extract.i = extractelement <2 x float> %66, i64 1
  %.sroa.0.4.vec.extract.i46 = extractelement <2 x float> %67, i64 1
  %70 = fmul float %5, %.sroa.0.4.vec.extract.i46
  %71 = fsub float %.sroa.02.4.vec.extract.i, %70
  %.sroa.03.4.vec.insert.i = insertelement <2 x float> %.sroa.03.0.vec.insert.i, float %71, i64 1
  store <2 x float> %.sroa.03.4.vec.insert.i, ptr %21, align 4
  %72 = load <2 x float>, ptr %32, align 4
  %.sroa.0.4.vec.extract.i47 = extractelement <2 x float> %72, i64 1
  %73 = fmul float %40, %.sroa.0.4.vec.extract.i47
  %.sroa.0.0.vec.extract.i48 = extractelement <2 x float> %72, i64 0
  %74 = fmul float %43, %.sroa.0.0.vec.extract.i48
  %75 = fsub float %73, %74
  %76 = fadd float %65, %75
  %77 = fmul float %9, %76
  %78 = getelementptr inbounds nuw i8, ptr %21, i64 8
  %79 = load float, ptr %78, align 4, !tbaa !109
  %80 = fsub float %79, %77
  store float %80, ptr %78, align 4, !tbaa !109
  %81 = load <2 x float>, ptr %31, align 4
  %82 = load <2 x float>, ptr %32, align 4
  %.sroa.02.0.vec.extract.i49 = extractelement <2 x float> %81, i64 0
  %.sroa.0.0.vec.extract.i50 = extractelement <2 x float> %82, i64 0
  %83 = fmul float %7, %.sroa.0.0.vec.extract.i50
  %84 = fadd float %.sroa.02.0.vec.extract.i49, %83
  %.sroa.03.0.vec.insert.i51 = insertelement <2 x float> poison, float %84, i64 0
  %.sroa.02.4.vec.extract.i52 = extractelement <2 x float> %81, i64 1
  %.sroa.0.4.vec.extract.i53 = extractelement <2 x float> %82, i64 1
  %85 = fmul float %7, %.sroa.0.4.vec.extract.i53
  %86 = fadd float %.sroa.02.4.vec.extract.i52, %85
  %.sroa.03.4.vec.insert.i54 = insertelement <2 x float> %.sroa.03.0.vec.insert.i51, float %86, i64 1
  store <2 x float> %.sroa.03.4.vec.insert.i54, ptr %31, align 4
  %87 = load <2 x float>, ptr %32, align 4
  %.sroa.0.4.vec.extract.i55 = extractelement <2 x float> %87, i64 1
  %88 = fmul float %51, %.sroa.0.4.vec.extract.i55
  %.sroa.0.0.vec.extract.i56 = extractelement <2 x float> %87, i64 0
  %89 = fmul float %54, %.sroa.0.0.vec.extract.i56
  %90 = fsub float %88, %89
  %91 = fadd float %65, %90
  %92 = fmul float %11, %91
  %93 = getelementptr inbounds nuw i8, ptr %31, i64 8
  %94 = load float, ptr %93, align 4, !tbaa !109
  %95 = fadd float %94, %92
  store float %95, ptr %93, align 4, !tbaa !109
  call void @llvm.lifetime.end.p0(i64 32, ptr nonnull %3) #10
  ret void
}